target datalayout = "e-m:e-p270:32:32-p271:32:32-p272:64:64-i64:64-i128:128-f80:128-n8:16:32:64-S128"
target triple = "x86_64-pc-linux-gnu"

%"class.absl::Cord::InlineRep" = type { %"class.absl::cord_internal::InlineData" }
%"class.absl::cord_internal::InlineData" = type { %"struct.absl::cord_internal::InlineData::Rep" }
%"struct.absl::cord_internal::InlineData::Rep" = type { %union.anon }
%union.anon = type { %"struct.absl::cord_internal::InlineData::Rep::AsTree" }
%"struct.absl::cord_internal::InlineData::Rep::AsTree" = type { i64, ptr }
%"struct.absl::cord_internal::CordRep" = type { i64, %"class.absl::cord_internal::RefcountAndFlags", i8, [3 x i8] }
%"class.absl::cord_internal::RefcountAndFlags" = type { %"struct.std::atomic" }
%"struct.std::atomic" = type { %"struct.std::__atomic_base" }
%"struct.std::__atomic_base" = type { i32 }

; Function Attrs: mustprogress nounwind uwtable
define linkonce_odr dso_local noundef ptr @_ZNK4absl13cord_internal10InlineData3Rep4treeEv(ptr noundef nonnull align 8 dereferenceable(16) %0) #5 comdat align 2 {
  %2 = alloca ptr, align 8
  store ptr %0, ptr %2, align 8, !tbaa !149
  %3 = load ptr, ptr %2, align 8
  %4 = call noundef ptr @_ZNK4absl13cord_internal10InlineData3Rep4selfEv(ptr noundef nonnull align 8 dereferenceable(16) %3)
  %5 = getelementptr inbounds nuw %"struct.absl::cord_internal::InlineData::Rep", ptr %4, i32 0, i32 0
  %6 = getelementptr inbounds nuw %"struct.absl::cord_internal::InlineData::Rep::AsTree", ptr %5, i32 0, i32 1
  %7 = load ptr, ptr %6, align 8, !tbaa !58
  ret ptr %7
}

; Function Attrs: alwaysinline mustprogress nounwind uwtable
define linkonce_odr dso_local noundef i32 @_ZNSt13__atomic_baseIiE9fetch_subEiSt12memory_order(ptr noundef nonnull align 4 dereferenceable(4) %0, i32 noundef %1, i32 noundef %2) #17 comdat align 2 {
  %4 = alloca ptr, align 8
  %5 = alloca i32, align 4
  %6 = alloca i32, align 4
  %7 = alloca i32, align 4
  %8 = alloca i32, align 4
  store ptr %0, ptr %4, align 8, !tbaa !153
  store i32 %1, ptr %5, align 4, !tbaa !78
  store i32 %2, ptr %6, align 4, !tbaa !155
  %9 = load ptr, ptr %4, align 8
  %10 = getelementptr inbounds nuw %"struct.std::__atomic_base", ptr %9, i32 0, i32 0
  %11 = load i32, ptr %6, align 4, !tbaa !155
  %12 = load i32, ptr %5, align 4, !tbaa !78
  store i32 %12, ptr %7, align 4, !tbaa !78
  switch i32 %11, label %13 [
    i32 1, label %16
    i32 2, label %16
    i32 3, label %19
    i32 4, label %22
    i32 5, label %25
  ]

13:                                               ; preds = %3
  %14 = load i32, ptr %7, align 4
  %15 = atomicrmw sub ptr %10, i32 %14 monotonic, align 4
  store i32 %15, ptr %8, align 4
  br label %28

16:                                               ; preds = %3, %3
  %17 = load i32, ptr %7, align 4
  %18 = atomicrmw sub ptr %10, i32 %17 acquire, align 4
  store i32 %18, ptr %8, align 4
  br label %28

19:                                               ; preds = %3
  %20 = load i32, ptr %7, align 4
  %21 = atomicrmw sub ptr %10, i32 %20 release, align 4
  store i32 %21, ptr %8, align 4
  br label %28

22:                                               ; preds = %3
  %23 = load i32, ptr %7, align 4
  %24 = atomicrmw sub ptr %10, i32 %23 acq_rel, align 4
  store i32 %24, ptr %8, align 4
  br label %28

25:                                               ; preds = %3
  %26 = load i32, ptr %7, align 4
  %27 = atomicrmw sub ptr %10, i32 %26 seq_cst, align 4
  store i32 %27, ptr %8, align 4
  br label %28

28:                                               ; preds = %25, %22, %19, %16, %13
  %29 = load i32, ptr %8, align 4, !tbaa !78
  ret i32 %29
}

; Function Attrs: mustprogress uwtable
define linkonce_odr dso_local noundef ptr @_ZNK4absl13cord_internal10InlineData7as_treeEv(ptr noundef nonnull align 8 dereferenceable(16) %0) #4 comdat align 2 {
  %2 = alloca ptr, align 8
  store ptr %0, ptr %2, align 8, !tbaa !47
  %3 = load ptr, ptr %2, align 8
  %4 = getelementptr inbounds nuw %"class.absl::cord_internal::InlineData", ptr %3, i32 0, i32 0
  %5 = call noundef ptr @_ZNK4absl13cord_internal10InlineData3Rep4treeEv(ptr noundef nonnull align 8 dereferenceable(16) %4)
  ret ptr %5
}

; Function Attrs: mustprogress nounwind uwtable
define linkonce_odr dso_local noundef ptr @_ZNK4absl13cord_internal10InlineData3Rep4selfEv(ptr noundef nonnull align 8 dereferenceable(16) %0) #5 comdat align 2 {
  %2 = alloca ptr, align 8
  store ptr %0, ptr %2, align 8, !tbaa !149
  %3 = load ptr, ptr %2, align 8
  ret ptr %3
}

; Function Attrs: mustprogress nounwind uwtable
define linkonce_odr dso_local noundef signext i8 @_ZNK4absl13cord_internal10InlineData3Rep3tagEv(ptr noundef nonnull align 8 dereferenceable(16) %0) #5 comdat align 2 {
  %2 = alloca ptr, align 8
  store ptr %0, ptr %2, align 8, !tbaa !149
  %3 = load ptr, ptr %2, align 8
  %4 = getelementptr inbounds i8, ptr %3, i64 0
  %5 = load i8, ptr %4, align 1, !tbaa !58
  ret i8 %5
}

; Function Attrs: inlinehint mustprogress nounwind uwtable
define linkonce_odr dso_local noundef zeroext i1 @_ZN4absl13cord_internal16RefcountAndFlags27DecrementExpectHighRefcountEv(ptr noundef nonnull align 4 dereferenceable(4) %0) #8 comdat align 2 {
  %2 = alloca ptr, align 8
  %3 = alloca i32, align 4
  store ptr %0, ptr %2, align 8, !tbaa !59
  %4 = load ptr, ptr %2, align 8
  call void @llvm.lifetime.start.p0(i64 4, ptr %3) #3
  %5 = getelementptr inbounds nuw %"class.absl::cord_internal::RefcountAndFlags", ptr %4, i32 0, i32 0
  %6 = call noundef i32 @_ZNSt13__atomic_baseIiE9fetch_subEiSt12memory_order(ptr noundef nonnull align 4 dereferenceable(4) %5, i32 noundef 2, i32 noundef 4) #3
  store i32 %6, ptr %3, align 4, !tbaa !78
  %7 = load i32, ptr %3, align 4, !tbaa !78
  %8 = icmp ne i32 %7, 2
  call void @llvm.lifetime.end.p0(i64 4, ptr %3) #3
  ret i1 %8
}

; Function Attrs: inlinehint mustprogress uwtable
define linkonce_odr dso_local noundef ptr @_ZNK4absl4Cord9InlineRep7as_treeEv(ptr noundef nonnull align 8 dereferenceable(16) %0) #6 comdat align 2 {
  %2 = alloca ptr, align 8
  store ptr %0, ptr %2, align 8, !tbaa !13
  %3 = load ptr, ptr %2, align 8
  %4 = getelementptr inbounds nuw %"class.absl::Cord::InlineRep", ptr %3, i32 0, i32 0
  %5 = call noundef ptr @_ZNK4absl13cord_internal10InlineData7as_treeEv(ptr noundef nonnull align 8 dereferenceable(16) %4)
  ret ptr %5
}

; Function Attrs: inlinehint mustprogress nounwind uwtable
define linkonce_odr dso_local noundef i64 @_ZN4absl13little_endian8ToHost64Em(i64 noundef %0) #8 comdat {
  %2 = alloca i64, align 8
  store i64 %0, ptr %2, align 8, !tbaa !23
  %3 = load i64, ptr %2, align 8, !tbaa !23
  ret i64 %3
}

; Function Attrs: mustprogress nounwind uwtable
define linkonce_odr dso_local noundef i64 @_ZNK4absl13cord_internal10InlineData3Rep10cordz_infoEv(ptr noundef nonnull align 8 dereferenceable(16) %0) #5 comdat align 2 {
  %2 = alloca ptr, align 8
  store ptr %0, ptr %2, align 8, !tbaa !149
  %3 = load ptr, ptr %2, align 8
  %4 = call noundef ptr @_ZNK4absl13cord_internal10InlineData3Rep4selfEv(ptr noundef nonnull align 8 dereferenceable(16) %3)
  %5 = getelementptr inbounds nuw %"struct.absl::cord_internal::InlineData::Rep", ptr %4, i32 0, i32 0
  %6 = getelementptr inbounds nuw %"struct.absl::cord_internal::InlineData::Rep::AsTree", ptr %5, i32 0, i32 0
  %7 = load i64, ptr %6, align 8, !tbaa !58
  ret i64 %7
}

; Function Attrs: mustprogress nounwind uwtable
define linkonce_odr dso_local noundef zeroext i1 @_ZNK4absl13cord_internal10InlineData7is_treeEv(ptr noundef nonnull align 8 dereferenceable(16) %0) #5 comdat align 2 {
  %2 = alloca ptr, align 8
  store ptr %0, ptr %2, align 8, !tbaa !47
  %3 = load ptr, ptr %2, align 8
  %4 = getelementptr inbounds nuw %"class.absl::cord_internal::InlineData", ptr %3, i32 0, i32 0
  %5 = call noundef signext i8 @_ZNK4absl13cord_internal10InlineData3Rep3tagEv(ptr noundef nonnull align 8 dereferenceable(16) %4)
  %6 = sext i8 %5 to i32
  %7 = and i32 %6, 1
  %8 = icmp ne i32 %7, 0
  ret i1 %8
}

; Function Attrs: inlinehint mustprogress uwtable
define linkonce_odr dso_local void @_ZN4absl13cord_internal7CordRep5UnrefEPS1_(ptr noundef %0) #6 comdat align 2 {
  %2 = alloca ptr, align 8
  store ptr %0, ptr %2, align 8, !tbaa !11
  %3 = load ptr, ptr %2, align 8, !tbaa !11
  %4 = getelementptr inbounds nuw %"struct.absl::cord_internal::CordRep", ptr %3, i32 0, i32 1
  %5 = call noundef zeroext i1 @_ZN4absl13cord_internal16RefcountAndFlags27DecrementExpectHighRefcountEv(ptr noundef nonnull align 4 dereferenceable(4) %4)
  %6 = xor i1 %5, true
  %7 = zext i1 %6 to i64
  %8 = call i64 @llvm.expect.i64(i64 %7, i64 0)
  %9 = icmp ne i64 %8, 0
  br i1 %9, label %10, label %12

10:                                               ; preds = %1
  %11 = load ptr, ptr %2, align 8, !tbaa !11
  call void @_ZN4absl13cord_internal7CordRep7DestroyEPS1_(ptr noundef %11)
  br label %12

12:                                               ; preds = %10, %1
  ret void
}

; Function Attrs: inlinehint mustprogress uwtable
define linkonce_odr dso_local noundef ptr @_ZNK4absl4Cord9InlineRep4treeEv(ptr noundef nonnull align 8 dereferenceable(16) %0) #6 comdat align 2 {
  %2 = alloca ptr, align 8
  %3 = alloca ptr, align 8
  store ptr %0, ptr %3, align 8, !tbaa !13
  %4 = load ptr, ptr %3, align 8
  %5 = call noundef zeroext i1 @_ZNK4absl4Cord9InlineRep7is_treeEv(ptr noundef nonnull align 8 dereferenceable(16) %4)
  br i1 %5, label %6, label %8

6:                                                ; preds = %1
  %7 = call noundef ptr @_ZNK4absl4Cord9InlineRep7as_treeEv(ptr noundef nonnull align 8 dereferenceable(16) %4)
  store ptr %7, ptr %2, align 8
  br label %9

8:                                                ; preds = %1
  store ptr null, ptr %2, align 8
  br label %9

9:                                                ; preds = %8, %6
  %10 = load ptr, ptr %2, align 8
  ret ptr %10
}

; Function Attrs: alwaysinline mustprogress uwtable
define linkonce_odr dso_local void @_ZN4absl13cord_internal9CordzInfo16MaybeUntrackCordEPS1_(ptr noundef %0) #10 comdat align 2 {
  %2 = alloca ptr, align 8
  store ptr %0, ptr %2, align 8, !tbaa !53
  %3 = load ptr, ptr %2, align 8, !tbaa !53
  %4 = icmp ne ptr %3, null
  %5 = zext i1 %4 to i64
  %6 = call i64 @llvm.expect.i64(i64 %5, i64 0)
  %7 = icmp ne i64 %6, 0
  br i1 %7, label %8, label %10

8:                                                ; preds = %1
  %9 = load ptr, ptr %2, align 8, !tbaa !53
  call void @_ZN4absl13cord_internal9CordzInfo7UntrackEv(ptr noundef nonnull align 8 dereferenceable(1344) %9)
  br label %10

10:                                               ; preds = %8, %1
  ret void
}

; Function Attrs: mustprogress uwtable
define linkonce_odr dso_local noundef ptr @_ZNK4absl13cord_internal10InlineData10cordz_infoEv(ptr noundef nonnull align 8 dereferenceable(16) %0) #4 comdat align 2 {
  %2 = alloca ptr, align 8
  %3 = alloca i64, align 8
  store ptr %0, ptr %2, align 8, !tbaa !47
  %4 = load ptr, ptr %2, align 8
  call void @llvm.lifetime.start.p0(i64 8, ptr %3) #3
  %5 = getelementptr inbounds nuw %"class.absl::cord_internal::InlineData", ptr %4, i32 0, i32 0
  %6 = call noundef i64 @_ZNK4absl13cord_internal10InlineData3Rep10cordz_infoEv(ptr noundef nonnull align 8 dereferenceable(16) %5)
  %7 = call noundef i64 @_ZN4absl13little_endian8ToHost64Em(i64 noundef %6)
  store i64 %7, ptr %3, align 8, !tbaa !23
  %8 = load i64, ptr %3, align 8, !tbaa !23
  %9 = sub nsw i64 %8, 1
  %10 = inttoptr i64 %9 to ptr
  call void @llvm.lifetime.end.p0(i64 8, ptr %3) #3
  ret ptr %10
}

; Function Attrs: mustprogress nounwind uwtable
define linkonce_odr dso_local noundef zeroext i1 @_ZNK4absl4Cord9InlineRep7is_treeEv(ptr noundef nonnull align 8 dereferenceable(16) %0) #5 comdat align 2 {
  %2 = alloca ptr, align 8
  store ptr %0, ptr %2, align 8, !tbaa !13
  %3 = load ptr, ptr %2, align 8
  %4 = getelementptr inbounds nuw %"class.absl::Cord::InlineRep", ptr %3, i32 0, i32 0
  %5 = call noundef zeroext i1 @_ZNK4absl13cord_internal10InlineData7is_treeEv(ptr noundef nonnull align 8 dereferenceable(16) %4)
  ret i1 %5
}

; Function Attrs: mustprogress uwtable
define dso_local void @_ZN4absl4Cord9InlineRep9UnrefTreeEv(ptr noundef nonnull align 8 dereferenceable(16) %0) #4 align 2 {
  %2 = alloca ptr, align 8
  store ptr %0, ptr %2, align 8, !tbaa !13
  %3 = load ptr, ptr %2, align 8
  %4 = call noundef zeroext i1 @_ZNK4absl4Cord9InlineRep7is_treeEv(ptr noundef nonnull align 8 dereferenceable(16) %3)
  br i1 %4, label %5, label %9

5:                                                ; preds = %1
  %6 = getelementptr inbounds nuw %"class.absl::Cord::InlineRep", ptr %3, i32 0, i32 0
  %7 = call noundef ptr @_ZNK4absl13cord_internal10InlineData10cordz_infoEv(ptr noundef nonnull align 8 dereferenceable(16) %6)
  call void @_ZN4absl13cord_internal9CordzInfo16MaybeUntrackCordEPS1_(ptr noundef %7)
  %8 = call noundef ptr @_ZNK4absl4Cord9InlineRep4treeEv(ptr noundef nonnull align 8 dereferenceable(16) %3)
  call void @_ZN4absl13cord_internal7CordRep5UnrefEPS1_(ptr noundef %8)
  br label %9

9:                                                ; preds = %5, %1
  ret void
}