; Function Attrs: mustprogress uwtable
define dso_local void @_ZN4absl4Cord9InlineRep9UnrefTreeEv(ptr noundef nonnull readonly align 8 captures(none) dereferenceable(16) %0) local_unnamed_addr #3 align 2 {
  %2 = load i8, ptr %0, align 8, !tbaa !13
  %3 = and i8 %2, 1
  %.not = icmp eq i8 %3, 0
  br i1 %.not, label %_ZN4absl13cord_internal7CordRep5UnrefEPS1_.exit, label %4

4:                                                ; preds = %1
  %5 = load i64, ptr %0, align 8
  %6 = add nsw i64 %5, -1
  %.not.i = icmp eq i64 %6, 0
  br i1 %.not.i, label %_ZN4absl13cord_internal9CordzInfo16MaybeUntrackCordEPS1_.exit, label %7, !prof !27

7:                                                ; preds = %4
  %8 = inttoptr i64 %6 to ptr
  tail call void @_ZN4absl13cord_internal9CordzInfo7UntrackEv(ptr noundef nonnull align 8 dereferenceable(1344) %8)
  %.pre = load i8, ptr %0, align 8, !tbaa !13
  %9 = and i8 %.pre, 1
  %10 = icmp eq i8 %9, 0
  br label %_ZN4absl13cord_internal9CordzInfo16MaybeUntrackCordEPS1_.exit

_ZN4absl13cord_internal9CordzInfo16MaybeUntrackCordEPS1_.exit: ; preds = %4, %7
  %.not.i1 = phi i1 [ false, %4 ], [ %10, %7 ]
  %11 = getelementptr inbounds nuw i8, ptr %0, i64 8
  %12 = load ptr, ptr %11, align 8
  %.0.i = select i1 %.not.i1, ptr null, ptr %12
  %13 = getelementptr inbounds nuw i8, ptr %.0.i, i64 8
  %14 = atomicrmw sub ptr %13, i32 2 acq_rel, align 4
  %.not.i2 = icmp eq i32 %14, 2
  br i1 %.not.i2, label %15, label %_ZN4absl13cord_internal7CordRep5UnrefEPS1_.exit, !prof !59

15:                                               ; preds = %_ZN4absl13cord_internal9CordzInfo16MaybeUntrackCordEPS1_.exit
  tail call void @_ZN4absl13cord_internal7CordRep7DestroyEPS1_(ptr noundef %.0.i)
  br label %_ZN4absl13cord_internal7CordRep5UnrefEPS1_.exit

_ZN4absl13cord_internal7CordRep5UnrefEPS1_.exit:  ; preds = %15, %_ZN4absl13cord_internal9CordzInfo16MaybeUntrackCordEPS1_.exit, %1
  ret void
}